; Function Attrs: mustprogress nofree norecurse nosync nounwind willreturn memory(read, argmem: readwrite, inaccessiblemem: none) uwtable
define range(i32 -1, 1) i32 @pqGetc(ptr noundef writeonly captures(none) %0, ptr noundef captures(none) %1) local_unnamed_addr #1 {
  %3 = getelementptr inbounds nuw i8, ptr %1, i64 1016
  %4 = load i32, ptr %3, align 8
  %5 = getelementptr inbounds nuw i8, ptr %1, i64 1020
  %6 = load i32, ptr %5, align 4
  %.not = icmp slt i32 %4, %6
  br i1 %.not, label %7, label %14

7:                                                ; preds = %2
  %8 = getelementptr inbounds nuw i8, ptr %1, i64 1000
  %9 = load ptr, ptr %8, align 8
  %10 = add nsw i32 %4, 1
  store i32 %10, ptr %3, align 8
  %11 = sext i32 %4 to i64
  %12 = getelementptr inbounds i8, ptr %9, i64 %11
  %13 = load i8, ptr %12, align 1
  store i8 %13, ptr %0, align 1
  br label %14

14:                                               ; preds = %2, %7
  %.0 = phi i32 [ 0, %7 ], [ -1, %2 ]
  ret i32 %.0
}